target datalayout = "e-m:e-p270:32:32-p271:32:32-p272:64:64-i64:64-i128:128-f80:128-n8:16:32:64-S128"
target triple = "x86_64-pc-linux-gnu"

%struct.duplication_data = type { i32 }

; Function Attrs: nounwind uwtable
define internal void @epl_duplication_insert(ptr noundef %0, ptr noundef %1, i32 noundef %2) #0 {
  %4 = alloca ptr, align 8
  %5 = alloca ptr, align 8
  %6 = alloca i32, align 4
  %7 = alloca ptr, align 8
  %8 = alloca ptr, align 8
  %9 = alloca ptr, align 8
  store ptr %0, ptr %4, align 8
  store ptr %1, ptr %5, align 8
  store i32 %2, ptr %6, align 4
  store ptr null, ptr %7, align 8
  store ptr null, ptr %8, align 8
  %10 = load ptr, ptr %4, align 8
  %11 = load ptr, ptr %5, align 8
  %12 = call i32 @g_hash_table_lookup_extended(ptr noundef %10, ptr noundef %11, ptr noundef null, ptr noundef %9)
  %13 = icmp ne i32 %12, 0
  br i1 %13, label %14, label %19

14:                                               ; preds = %3
  %15 = load ptr, ptr %9, align 8
  store ptr %15, ptr %7, align 8
  %16 = load i32, ptr %6, align 4
  %17 = load ptr, ptr %7, align 8
  %18 = getelementptr inbounds %struct.duplication_data, ptr %17, i32 0, i32 0
  store i32 %16, ptr %18, align 4
  br label %32

19:                                               ; preds = %3
  %20 = call ptr @wmem_file_scope()
  %21 = load ptr, ptr %5, align 8
  %22 = call noalias ptr @wmem_memdup(ptr noundef %20, ptr noundef %21, i64 noundef 4)
  store ptr %22, ptr %8, align 8
  %23 = call ptr @wmem_file_scope()
  %24 = call noalias ptr @wmem_alloc0(ptr noundef %23, i64 noundef 4)
  store ptr %24, ptr %7, align 8
  %25 = load i32, ptr %6, align 4
  %26 = load ptr, ptr %7, align 8
  %27 = getelementptr inbounds %struct.duplication_data, ptr %26, i32 0, i32 0
  store i32 %25, ptr %27, align 4
  %28 = load ptr, ptr %4, align 8
  %29 = load ptr, ptr %8, align 8
  %30 = load ptr, ptr %7, align 8
  %31 = call i32 @g_hash_table_insert(ptr noundef %28, ptr noundef %29, ptr noundef %30)
  br label %32

32:                                               ; preds = %19, %14
  ret void
}