; Function Attrs: nounwind uwtable
define internal fastcc void @epl_duplication_insert(ptr noundef %0, ptr noundef %1, i32 noundef %2) unnamed_addr #2 {
  %4 = alloca ptr, align 8
  %5 = call i32 @g_hash_table_lookup_extended(ptr noundef %0, ptr noundef %1, ptr noundef null, ptr noundef nonnull %4) #18
  %.not = icmp eq i32 %5, 0
  br i1 %.not, label %8, label %6

6:                                                ; preds = %3
  %7 = load ptr, ptr %4, align 8
  store i32 %2, ptr %7, align 4
  br label %14

8:                                                ; preds = %3
  %9 = call ptr @wmem_file_scope() #18
  %10 = call noalias ptr @wmem_memdup(ptr noundef %9, ptr noundef %1, i64 noundef 4) #18
  %11 = call ptr @wmem_file_scope() #18
  %12 = call noalias ptr @wmem_alloc0(ptr noundef %11, i64 noundef 4) #18
  store i32 %2, ptr %12, align 4
  %13 = call i32 @g_hash_table_insert(ptr noundef %0, ptr noundef %10, ptr noundef nonnull %12) #18
  br label %14

14:                                               ; preds = %8, %6
  ret void
}